(lp1
(lp2
Vindex_metacarpal_ctrl_r
p3
a(lp4
VrotateX
p5
aVrotateY
p6
aVrotateZ
p7
aaF0
aF-1.4305809030000001
aF-0.39976943149999999
aa(lp8
Vmiddle_metacarpal_ctrl_r
p9
a(lp10
VrotateX
p11
aVrotateY
p12
aVrotateZ
p13
aaF0
aF0
aF0
aa(lp14
Vring_metacarpal_ctrl_r
p15
a(lp16
VrotateX
p17
aVrotateY
p18
aVrotateZ
p19
aaF0
aF0.93024829909999995
aF0
aa(lp20
Vpinky_metacarpal_ctrl_r
p21
a(lp22
VrotateX
p23
aVrotateY
p24
aVrotateZ
p25
aaF0
aF1.14874465
aF1.0312089410000003
aa(lp26
Vindex_finger_fk_ctrl_1_r
p27
a(lp28
VtranslateX
p29
aVtranslateY
p30
aVtranslateZ
p31
aVrotateX
p32
aVrotateY
p33
aVrotateZ
p34
aVsticky
p35
aaF0
aF0
aF0
aF0
aF0
aF-13.880685339999999
aF0
aa(lp36
Vmiddle_finger_fk_ctrl_1_r
p37
a(lp38
VtranslateX
p39
aVtranslateY
p40
aVtranslateZ
p41
aVrotateX
p42
aVrotateY
p43
aVrotateZ
p44
aVsticky
p45
aaF0
aF0
aF0
aF0
aF0
aF-14.426505080000002
aF0
aa(lp46
Vring_finger_fk_ctrl_1_r
p47
a(lp48
VtranslateX
p49
aVtranslateY
p50
aVtranslateZ
p51
aVrotateX
p52
aVrotateY
p53
aVrotateZ
p54
aVsticky
p55
aaF0
aF0
aF0
aF0
aF-1.830153411
aF1.6299210730000002
aF0
aa(lp56
Vpinky_finger_fk_ctrl_1_r
p57
a(lp58
VtranslateX
p59
aVtranslateY
p60
aVtranslateZ
p61
aVrotateX
p62
aVrotateY
p63
aVrotateZ
p64
aVsticky
p65
aaF0
aF0
aF0
aF-1.3638155940000001
aF5.81106385
aF3.9454901850000006
aF0
aa(lp66
Vthumb_finger_fk_ctrl_1_r
p67
a(lp68
VtranslateX
p69
aVtranslateY
p70
aVtranslateZ
p71
aVrotateX
p72
aVrotateY
p73
aVrotateZ
p74
aVsticky
p75
aaF0
aF0
aF0
aF-3.13745129
aF11.458131399999999
aF-3.8426005649999997
aF0
aa(lp76
Vindex_finger_fk_ctrl_2_r
p77
a(lp78
VtranslateX
p79
aVtranslateY
p80
aVtranslateZ
p81
aVrotateX
p82
aVrotateY
p83
aVrotateZ
p84
aaF0
aF0
aF0
aF0
aF0
aF13.12641275
aa(lp85
Vmiddle_finger_fk_ctrl_2_r
p86
a(lp87
VtranslateX
p88
aVtranslateY
p89
aVtranslateZ
p90
aVrotateX
p91
aVrotateY
p92
aVrotateZ
p93
aaF0
aF0
aF0
aF0
aF0
aF13.31369121
aa(lp94
Vring_finger_fk_ctrl_2_r
p95
a(lp96
VtranslateX
p97
aVtranslateY
p98
aVtranslateZ
p99
aVrotateX
p100
aVrotateY
p101
aVrotateZ
p102
aaF0
aF0
aF0
aF0
aF0
aF11.034225040000003
aa(lp103
Vpinky_finger_fk_ctrl_2_r
p104
a(lp105
VtranslateX
p106
aVtranslateY
p107
aVtranslateZ
p108
aVrotateX
p109
aVrotateY
p110
aVrotateZ
p111
aaF0
aF0
aF0
aF0
aF0
aF11.344934
aa(lp112
Vthumb_finger_fk_ctrl_2_r
p113
a(lp114
VtranslateX
p115
aVtranslateY
p116
aVtranslateZ
p117
aVrotateX
p118
aVrotateY
p119
aVrotateZ
p120
aaF0
aF0
aF0
aF0
aF0
aF0
aa(lp121
Vindex_finger_fk_ctrl_3_r
p122
a(lp123
VtranslateX
p124
aVtranslateY
p125
aVtranslateZ
p126
aVrotateX
p127
aVrotateY
p128
aVrotateZ
p129
aaF0
aF0
aF0
aF0
aF0
aF9.58821294
aa(lp130
Vmiddle_finger_fk_ctrl_3_r
p131
a(lp132
VtranslateX
p133
aVtranslateY
p134
aVtranslateZ
p135
aVrotateX
p136
aVrotateY
p137
aVrotateZ
p138
aaF0
aF0
aF0
aF0
aF0
aF9.58821294
aa(lp139
Vring_finger_fk_ctrl_3_r
p140
a(lp141
VtranslateX
p142
aVtranslateY
p143
aVtranslateZ
p144
aVrotateX
p145
aVrotateY
p146
aVrotateZ
p147
aaF0
aF0
aF0
aF0
aF0
aF10.81565909
aa(lp148
Vpinky_finger_fk_ctrl_3_r
p149
a(lp150
VtranslateX
p151
aVtranslateY
p152
aVtranslateZ
p153
aVrotateX
p154
aVrotateY
p155
aVrotateZ
p156
aaF0
aF0
aF0
aF0
aF0
aF4.7890253349999998
aa(lp157
Vthumb_finger_fk_ctrl_3_r
p158
a(lp159
VtranslateX
p160
aVtranslateY
p161
aVtranslateZ
p162
aVrotateX
p163
aVrotateY
p164
aVrotateZ
p165
aaF0
aF0
aF0
aF0
aF0
aF0
aa.